target datalayout = "e-m:e-p270:32:32-p271:32:32-p272:64:64-i64:64-i128:128-f80:128-n8:16:32:64-S128"
target triple = "x86_64-pc-linux-gnu"

%struct.field_info = type { ptr, i32, i32, i32, i32, i32, i32, ptr, ptr, ptr, i32, i32 }
%struct._packet_info = type { ptr, ptr, i32, i32, %struct.nstime_t, %struct.nstime_t, %struct.nstime_t, i8, ptr, ptr, ptr, ptr, %struct._address, %struct._address, %struct._address, %struct._address, %struct._address, %struct._address, i32, ptr, i8, [3 x i8], %struct.anon, i32, i32, i32, i32, ptr, i8, ptr, ptr, i16, i16, i32, i32, i16, i32, i32, ptr, ptr, ptr, i8, i8, i16, i16, i16, i32, i16, i16, ptr, ptr, ptr, ptr, ptr, i32, i32 }
%struct.nstime_t = type { i64, i32 }
%struct._address = type { i32, i32, ptr, ptr }
%struct.anon = type { i8, [3 x i8] }
%struct.epan_dissect = type { ptr, ptr, ptr, %struct._packet_info }
%struct._GPtrArray = type { ptr, i32 }

@.str.329 = private unnamed_addr constant [12 x i8] c"sip.Call-ID\00", align 1
@.str.1094 = private unnamed_addr constant [20 x i8] c"sip.Call-ID == \22%s\22\00", align 1

; Function Attrs: null_pointer_is_valid sspstrong uwtable
define internal ptr @sip_follow_conv_filter(ptr noundef %0, ptr noundef %1, ptr noundef %2, ptr noundef %3) #0 {
  %5 = alloca ptr, align 8
  %6 = alloca ptr, align 8
  %7 = alloca ptr, align 8
  %8 = alloca ptr, align 8
  %9 = alloca ptr, align 8
  %10 = alloca i32, align 4
  %11 = alloca ptr, align 8
  store ptr %0, ptr %5, align 8
  store ptr %1, ptr %6, align 8
  store ptr %2, ptr %7, align 8
  store ptr %3, ptr %8, align 8
  call void @llvm.lifetime.start.p0(i64 8, ptr %9) #18
  store ptr null, ptr %9, align 8
  %12 = load ptr, ptr %5, align 8
  %13 = icmp ne ptr %12, null
  br i1 %13, label %14, label %41

14:                                               ; preds = %4
  call void @llvm.lifetime.start.p0(i64 4, ptr %10) #18
  %15 = call i32 @proto_registrar_get_id_byname(ptr noundef @.str.329)
  store i32 %15, ptr %10, align 4
  call void @llvm.lifetime.start.p0(i64 8, ptr %11) #18
  %16 = load ptr, ptr %5, align 8
  %17 = getelementptr inbounds nuw %struct.epan_dissect, ptr %16, i32 0, i32 2
  %18 = load ptr, ptr %17, align 8
  %19 = load i32, ptr %10, align 4
  %20 = call ptr @proto_find_first_finfo(ptr noundef %18, i32 noundef %19)
  store ptr %20, ptr %11, align 8
  %21 = load ptr, ptr %11, align 8
  %22 = icmp ne ptr %21, null
  br i1 %22, label %23, label %38

23:                                               ; preds = %14
  %24 = load ptr, ptr %11, align 8
  %25 = getelementptr inbounds nuw %struct._GPtrArray, ptr %24, i32 0, i32 1
  %26 = load i32, ptr %25, align 8
  %27 = icmp ne i32 %26, 0
  br i1 %27, label %28, label %38

28:                                               ; preds = %23
  %29 = load ptr, ptr %11, align 8
  %30 = getelementptr inbounds nuw %struct._GPtrArray, ptr %29, i32 0, i32 0
  %31 = load ptr, ptr %30, align 8
  %32 = getelementptr ptr, ptr %31, i64 0
  %33 = load ptr, ptr %32, align 8
  %34 = getelementptr inbounds nuw %struct.field_info, ptr %33, i32 0, i32 9
  %35 = load ptr, ptr %34, align 8
  %36 = call ptr @fvalue_get_string(ptr noundef %35)
  %37 = call noalias ptr (ptr, ptr, ...) @wmem_strdup_printf(ptr noundef null, ptr noundef @.str.1094, ptr noundef %36)
  store ptr %37, ptr %9, align 8
  br label %38

38:                                               ; preds = %28, %23, %14
  %39 = load ptr, ptr %11, align 8
  %40 = call ptr @g_ptr_array_free(ptr noundef %39, i32 noundef 1)
  call void @llvm.lifetime.end.p0(i64 8, ptr %11) #18
  call void @llvm.lifetime.end.p0(i64 4, ptr %10) #18
  br label %43

41:                                               ; preds = %4
  %42 = call noalias ptr (ptr, ptr, ...) @wmem_strdup_printf(ptr noundef null, ptr noundef @.str.329)
  store ptr %42, ptr %9, align 8
  br label %43

43:                                               ; preds = %41, %38
  %44 = load ptr, ptr %9, align 8
  call void @llvm.lifetime.end.p0(i64 8, ptr %9) #18
  ret ptr %44
}