; Function Attrs: null_pointer_is_valid sspstrong uwtable
define internal noalias ptr @sip_follow_conv_filter(ptr noundef readonly captures(address_is_null) %0, ptr readnone captures(none) %1, ptr readnone captures(none) %2, ptr readnone captures(none) %3) #0 {
  %.not = icmp eq ptr %0, null
  br i1 %.not, label %22, label %5

5:                                                ; preds = %4
  %6 = tail call i32 @proto_registrar_get_id_byname(ptr noundef nonnull @.str.329)
  %7 = getelementptr inbounds nuw i8, ptr %0, i64 16
  %8 = load ptr, ptr %7, align 8
  %9 = tail call ptr @proto_find_first_finfo(ptr noundef %8, i32 noundef %6)
  %.not9 = icmp eq ptr %9, null
  br i1 %.not9, label %20, label %10

10:                                               ; preds = %5
  %11 = getelementptr inbounds nuw i8, ptr %9, i64 8
  %12 = load i32, ptr %11, align 8
  %.not10 = icmp eq i32 %12, 0
  br i1 %.not10, label %20, label %13

13:                                               ; preds = %10
  %14 = load ptr, ptr %9, align 8
  %15 = load ptr, ptr %14, align 8
  %16 = getelementptr inbounds nuw i8, ptr %15, i64 48
  %17 = load ptr, ptr %16, align 8
  %18 = tail call ptr @fvalue_get_string(ptr noundef %17)
  %19 = tail call noalias ptr (ptr, ptr, ...) @wmem_strdup_printf(ptr noundef null, ptr noundef nonnull @.str.1094, ptr noundef %18)
  br label %20

20:                                               ; preds = %13, %10, %5
  %.0 = phi ptr [ %19, %13 ], [ null, %10 ], [ null, %5 ]
  %21 = tail call ptr @g_ptr_array_free(ptr noundef %9, i32 noundef 1)
  br label %24

22:                                               ; preds = %4
  %23 = tail call noalias ptr (ptr, ptr, ...) @wmem_strdup_printf(ptr noundef null, ptr noundef nonnull @.str.329)
  br label %24

24:                                               ; preds = %22, %20
  %.1 = phi ptr [ %.0, %20 ], [ %23, %22 ]
  ret ptr %.1
}